target datalayout = "e-m:e-p270:32:32-p271:32:32-p272:64:64-i64:64-i128:128-f80:128-n8:16:32:64-S128"
target triple = "x86_64-pc-linux-gnu"

%struct._lv_textarea_t = type { %struct._lv_obj_t, ptr, ptr, ptr, ptr, ptr, i32, i32, %struct.anon, i32, i32, i8 }
%struct._lv_obj_t = type { ptr, ptr, ptr, ptr, ptr, %struct.lv_area_t, i32, i16, i16 }
%struct.lv_area_t = type { i32, i32, i32, i32 }
%struct.anon = type { i32, i32, %struct.lv_area_t, i32, i8 }

; Function Attrs: nounwind uwtable
define void @lv_textarea_set_password_bullet(ptr noundef %0, ptr noundef %1) #0 {
  %3 = alloca ptr, align 8
  %4 = alloca ptr, align 8
  %5 = alloca ptr, align 8
  %6 = alloca i64, align 8
  %7 = alloca i32, align 4
  store ptr %0, ptr %3, align 8, !tbaa !8
  store ptr %1, ptr %4, align 8, !tbaa !33
  br label %8

8:                                                ; preds = %2
  %9 = load ptr, ptr %3, align 8, !tbaa !8
  %10 = icmp ne ptr %9, null
  br i1 %10, label %15, label %11

11:                                               ; preds = %8
  br label %12

12:                                               ; preds = %11
  br label %13

13:                                               ; preds = %12
  br label %14

14:                                               ; preds = %13, %14
  br label %14

15:                                               ; preds = %8
  br label %16

16:                                               ; preds = %15
  br label %17

17:                                               ; preds = %16
  %18 = load ptr, ptr %4, align 8, !tbaa !33
  %19 = icmp ne ptr %18, null
  br i1 %19, label %24, label %20

20:                                               ; preds = %17
  br label %21

21:                                               ; preds = %20
  br label %22

22:                                               ; preds = %21
  br label %23

23:                                               ; preds = %22, %23
  br label %23

24:                                               ; preds = %17
  br label %25

25:                                               ; preds = %24
  call void @llvm.lifetime.start.p0(i64 8, ptr %5) #6
  %26 = load ptr, ptr %3, align 8, !tbaa !8
  store ptr %26, ptr %5, align 8, !tbaa !10
  %27 = load ptr, ptr %4, align 8, !tbaa !33
  %28 = icmp ne ptr %27, null
  br i1 %28, label %40, label %29

29:                                               ; preds = %25
  %30 = load ptr, ptr %5, align 8, !tbaa !10
  %31 = getelementptr inbounds nuw %struct._lv_textarea_t, ptr %30, i32 0, i32 4
  %32 = load ptr, ptr %31, align 8, !tbaa !22
  %33 = icmp ne ptr %32, null
  br i1 %33, label %34, label %40

34:                                               ; preds = %29
  %35 = load ptr, ptr %5, align 8, !tbaa !10
  %36 = getelementptr inbounds nuw %struct._lv_textarea_t, ptr %35, i32 0, i32 4
  %37 = load ptr, ptr %36, align 8, !tbaa !22
  call void @lv_free(ptr noundef %37)
  %38 = load ptr, ptr %5, align 8, !tbaa !10
  %39 = getelementptr inbounds nuw %struct._lv_textarea_t, ptr %38, i32 0, i32 4
  store ptr null, ptr %39, align 8, !tbaa !22
  br label %88

40:                                               ; preds = %29, %25
  call void @llvm.lifetime.start.p0(i64 8, ptr %6) #6
  %41 = load ptr, ptr %4, align 8, !tbaa !33
  %42 = call i64 @lv_strlen(ptr noundef %41)
  store i64 %42, ptr %6, align 8, !tbaa !36
  %43 = load ptr, ptr %5, align 8, !tbaa !10
  %44 = getelementptr inbounds nuw %struct._lv_textarea_t, ptr %43, i32 0, i32 4
  %45 = load ptr, ptr %44, align 8, !tbaa !22
  %46 = load i64, ptr %6, align 8, !tbaa !36
  %47 = add i64 %46, 1
  %48 = call ptr @lv_realloc(ptr noundef %45, i64 noundef %47)
  %49 = load ptr, ptr %5, align 8, !tbaa !10
  %50 = getelementptr inbounds nuw %struct._lv_textarea_t, ptr %49, i32 0, i32 4
  store ptr %48, ptr %50, align 8, !tbaa !22
  br label %51

51:                                               ; preds = %40
  %52 = load ptr, ptr %5, align 8, !tbaa !10
  %53 = getelementptr inbounds nuw %struct._lv_textarea_t, ptr %52, i32 0, i32 4
  %54 = load ptr, ptr %53, align 8, !tbaa !22
  %55 = icmp ne ptr %54, null
  br i1 %55, label %62, label %56

56:                                               ; preds = %51
  br label %57

57:                                               ; preds = %56
  br label %58

58:                                               ; preds = %57
  br label %59

59:                                               ; preds = %58
  br label %60

60:                                               ; preds = %61, %59
  br label %61

61:                                               ; preds = %60
  br label %60

62:                                               ; preds = %51
  br label %63

63:                                               ; preds = %62
  br label %64

64:                                               ; preds = %63
  %65 = load ptr, ptr %5, align 8, !tbaa !10
  %66 = getelementptr inbounds nuw %struct._lv_textarea_t, ptr %65, i32 0, i32 4
  %67 = load ptr, ptr %66, align 8, !tbaa !22
  %68 = icmp eq ptr %67, null
  br i1 %68, label %69, label %73

69:                                               ; preds = %64
  br label %70

70:                                               ; preds = %69
  br label %71

71:                                               ; preds = %70
  br label %72

72:                                               ; preds = %71
  store i32 1, ptr %7, align 4
  br label %85

73:                                               ; preds = %64
  %74 = load ptr, ptr %5, align 8, !tbaa !10
  %75 = getelementptr inbounds nuw %struct._lv_textarea_t, ptr %74, i32 0, i32 4
  %76 = load ptr, ptr %75, align 8, !tbaa !22
  %77 = load ptr, ptr %4, align 8, !tbaa !33
  %78 = load i64, ptr %6, align 8, !tbaa !36
  %79 = call ptr @lv_memcpy(ptr noundef %76, ptr noundef %77, i64 noundef %78)
  %80 = load ptr, ptr %5, align 8, !tbaa !10
  %81 = getelementptr inbounds nuw %struct._lv_textarea_t, ptr %80, i32 0, i32 4
  %82 = load ptr, ptr %81, align 8, !tbaa !22
  %83 = load i64, ptr %6, align 8, !tbaa !36
  %84 = getelementptr inbounds nuw i8, ptr %82, i64 %83
  store i8 0, ptr %84, align 1, !tbaa !35
  store i32 0, ptr %7, align 4
  br label %85

85:                                               ; preds = %73, %72
  call void @llvm.lifetime.end.p0(i64 8, ptr %6) #6
  %86 = load i32, ptr %7, align 4
  switch i32 %86, label %90 [
    i32 0, label %87
  ]

87:                                               ; preds = %85
  br label %88

88:                                               ; preds = %87, %34
  %89 = load ptr, ptr %3, align 8, !tbaa !8
  call void @pwd_char_hider(ptr noundef %89)
  store i32 0, ptr %7, align 4
  br label %90

90:                                               ; preds = %88, %85
  call void @llvm.lifetime.end.p0(i64 8, ptr %5) #6
  %91 = load i32, ptr %7, align 4
  switch i32 %91, label %93 [
    i32 0, label %92
    i32 1, label %92
  ]

92:                                               ; preds = %90, %90
  ret void

93:                                               ; preds = %90
  unreachable
}