; Function Attrs: nounwind uwtable
define void @lv_textarea_set_password_bullet(ptr noundef %0, ptr noundef %1) local_unnamed_addr #0 {
  %.not = icmp eq ptr %0, null
  br i1 %.not, label %.preheader, label %3

.preheader:                                       ; preds = %2, %.preheader
  br label %.preheader

3:                                                ; preds = %2
  %.not23 = icmp eq ptr %1, null
  br i1 %.not23, label %.preheader25, label %4

.preheader25:                                     ; preds = %3, %.preheader25
  br label %.preheader25

4:                                                ; preds = %3
  %5 = tail call i64 @lv_strlen(ptr noundef nonnull %1) #10
  %6 = getelementptr inbounds nuw i8, ptr %0, i64 88
  %7 = load ptr, ptr %6, align 8, !tbaa !24
  %8 = add i64 %5, 1
  %9 = tail call ptr @lv_realloc(ptr noundef %7, i64 noundef %8) #10
  store ptr %9, ptr %6, align 8, !tbaa !24
  %.not24 = icmp eq ptr %9, null
  br i1 %.not24, label %.preheader26, label %10

.preheader26:                                     ; preds = %4, %.preheader26
  br label %.preheader26

10:                                               ; preds = %4
  %11 = tail call ptr @lv_memcpy(ptr noundef nonnull %9, ptr noundef nonnull %1, i64 noundef %5) #10
  %12 = load ptr, ptr %6, align 8, !tbaa !24
  %13 = getelementptr inbounds nuw i8, ptr %12, i64 %5
  store i8 0, ptr %13, align 1, !tbaa !38
  tail call fastcc void @pwd_char_hider(ptr noundef nonnull %0)
  ret void
}